target datalayout = "e-m:e-p270:32:32-p271:32:32-p272:64:64-i64:64-i128:128-f80:128-n8:16:32:64-S128"
target triple = "x86_64-pc-linux-gnu"

%struct.X509_algor_st = type { ptr, ptr }
%struct.ocsp_basic_response_st = type { %struct.ocsp_response_data_st, %struct.X509_algor_st, ptr, ptr }
%struct.ocsp_response_data_st = type { ptr, %struct.ocsp_responder_id_st, ptr, ptr, ptr }
%struct.ocsp_responder_id_st = type { i32, %union.anon }
%union.anon = type { ptr }

@.str = private unnamed_addr constant [34 x i8] c"../openssl/crypto/ocsp/ocsp_srv.c\00", align 1
@__func__.OCSP_basic_sign_ctx = private unnamed_addr constant [20 x i8] c"OCSP_basic_sign_ctx\00", align 1

; Function Attrs: nounwind uwtable
define i32 @OCSP_RESPID_set_by_name(ptr noundef %0, ptr noundef %1) #0 {
  %3 = alloca i32, align 4
  %4 = alloca ptr, align 8
  %5 = alloca ptr, align 8
  store ptr %0, ptr %4, align 8, !tbaa !80
  store ptr %1, ptr %5, align 8, !tbaa !71
  %6 = load ptr, ptr %4, align 8, !tbaa !80
  %7 = getelementptr inbounds nuw %struct.ocsp_responder_id_st, ptr %6, i32 0, i32 1
  %8 = load ptr, ptr %5, align 8, !tbaa !71
  %9 = call ptr @X509_get_subject_name(ptr noundef %8)
  %10 = call i32 @X509_NAME_set(ptr noundef %7, ptr noundef %9)
  %11 = icmp ne i32 %10, 0
  br i1 %11, label %13, label %12

12:                                               ; preds = %2
  store i32 0, ptr %3, align 4
  br label %16

13:                                               ; preds = %2
  %14 = load ptr, ptr %4, align 8, !tbaa !80
  %15 = getelementptr inbounds nuw %struct.ocsp_responder_id_st, ptr %14, i32 0, i32 0
  store i32 0, ptr %15, align 8, !tbaa !105
  store i32 1, ptr %3, align 4
  br label %16

16:                                               ; preds = %13, %12
  %17 = load i32, ptr %3, align 4
  ret i32 %17
}

; Function Attrs: nounwind uwtable
define i32 @OCSP_basic_add1_cert(ptr noundef %0, ptr noundef %1) #0 {
  %3 = alloca ptr, align 8
  %4 = alloca ptr, align 8
  store ptr %0, ptr %3, align 8, !tbaa !40
  store ptr %1, ptr %4, align 8, !tbaa !71
  %5 = load ptr, ptr %3, align 8, !tbaa !40
  %6 = getelementptr inbounds nuw %struct.ocsp_basic_response_st, ptr %5, i32 0, i32 3
  %7 = load ptr, ptr %4, align 8, !tbaa !71
  %8 = call i32 @ossl_x509_add_cert_new(ptr noundef %6, ptr noundef %7, i32 noundef 1)
  ret i32 %8
}

; Function Attrs: nounwind uwtable
define i32 @OCSP_basic_sign_ctx(ptr noundef %0, ptr noundef %1, ptr noundef %2, ptr noundef %3, i64 noundef %4) #0 {
  %6 = alloca i32, align 4
  %7 = alloca ptr, align 8
  %8 = alloca ptr, align 8
  %9 = alloca ptr, align 8
  %10 = alloca ptr, align 8
  %11 = alloca i64, align 8
  %12 = alloca ptr, align 8
  %13 = alloca ptr, align 8
  %14 = alloca i32, align 4
  store ptr %0, ptr %7, align 8, !tbaa !40
  store ptr %1, ptr %8, align 8, !tbaa !71
  store ptr %2, ptr %9, align 8, !tbaa !73
  store ptr %3, ptr %10, align 8, !tbaa !75
  store i64 %4, ptr %11, align 8, !tbaa !76
  call void @llvm.lifetime.start.p0(i64 8, ptr %12) #5
  call void @llvm.lifetime.start.p0(i64 8, ptr %13) #5
  %15 = load ptr, ptr %9, align 8, !tbaa !73
  %16 = icmp eq ptr %15, null
  br i1 %16, label %21, label %17

17:                                               ; preds = %5
  %18 = load ptr, ptr %9, align 8, !tbaa !73
  %19 = call ptr @EVP_MD_CTX_get_pkey_ctx(ptr noundef %18)
  %20 = icmp eq ptr %19, null
  br i1 %20, label %21, label %22

21:                                               ; preds = %17, %5
  call void @ERR_new()
  call void @ERR_set_debug(ptr noundef @.str, i32 noundef 175, ptr noundef @__func__.OCSP_basic_sign_ctx)
  call void (i32, i32, ptr, ...) @ERR_set_error(i32 noundef 39, i32 noundef 130, ptr noundef null)
  br label %99

22:                                               ; preds = %17
  %23 = load ptr, ptr %9, align 8, !tbaa !73
  %24 = call ptr @EVP_MD_CTX_get_pkey_ctx(ptr noundef %23)
  %25 = call ptr @EVP_PKEY_CTX_get0_pkey(ptr noundef %24)
  store ptr %25, ptr %13, align 8, !tbaa !77
  %26 = load ptr, ptr %13, align 8, !tbaa !77
  %27 = icmp eq ptr %26, null
  br i1 %27, label %33, label %28

28:                                               ; preds = %22
  %29 = load ptr, ptr %8, align 8, !tbaa !71
  %30 = load ptr, ptr %13, align 8, !tbaa !77
  %31 = call i32 @X509_check_private_key(ptr noundef %29, ptr noundef %30)
  %32 = icmp ne i32 %31, 0
  br i1 %32, label %34, label %33

33:                                               ; preds = %28, %22
  call void @ERR_new()
  call void @ERR_set_debug(ptr noundef @.str, i32 noundef 181, ptr noundef @__func__.OCSP_basic_sign_ctx)
  call void (i32, i32, ptr, ...) @ERR_set_error(i32 noundef 39, i32 noundef 110, ptr noundef null)
  br label %99

34:                                               ; preds = %28
  %35 = load i64, ptr %11, align 8, !tbaa !76
  %36 = and i64 %35, 1
  %37 = icmp ne i64 %36, 0
  br i1 %37, label %52, label %38

38:                                               ; preds = %34
  %39 = load ptr, ptr %7, align 8, !tbaa !40
  %40 = load ptr, ptr %8, align 8, !tbaa !71
  %41 = call i32 @OCSP_basic_add1_cert(ptr noundef %39, ptr noundef %40)
  %42 = icmp ne i32 %41, 0
  br i1 %42, label %43, label %50

43:                                               ; preds = %38
  %44 = load ptr, ptr %7, align 8, !tbaa !40
  %45 = getelementptr inbounds nuw %struct.ocsp_basic_response_st, ptr %44, i32 0, i32 3
  %46 = load ptr, ptr %45, align 8, !tbaa !79
  %47 = load ptr, ptr %10, align 8, !tbaa !75
  %48 = call i32 @X509_add_certs(ptr noundef %46, ptr noundef %47, i32 noundef 1)
  %49 = icmp ne i32 %48, 0
  br i1 %49, label %51, label %50

50:                                               ; preds = %43, %38
  br label %99

51:                                               ; preds = %43
  br label %52

52:                                               ; preds = %51, %34
  %53 = load ptr, ptr %7, align 8, !tbaa !40
  %54 = getelementptr inbounds nuw %struct.ocsp_basic_response_st, ptr %53, i32 0, i32 0
  %55 = getelementptr inbounds nuw %struct.ocsp_response_data_st, ptr %54, i32 0, i32 1
  store ptr %55, ptr %12, align 8, !tbaa !80
  %56 = load i64, ptr %11, align 8, !tbaa !76
  %57 = and i64 %56, 1024
  %58 = icmp ne i64 %57, 0
  br i1 %58, label %59, label %66

59:                                               ; preds = %52
  %60 = load ptr, ptr %12, align 8, !tbaa !80
  %61 = load ptr, ptr %8, align 8, !tbaa !71
  %62 = call i32 @OCSP_RESPID_set_by_key(ptr noundef %60, ptr noundef %61)
  %63 = icmp ne i32 %62, 0
  br i1 %63, label %65, label %64

64:                                               ; preds = %59
  br label %99

65:                                               ; preds = %59
  br label %73

66:                                               ; preds = %52
  %67 = load ptr, ptr %12, align 8, !tbaa !80
  %68 = load ptr, ptr %8, align 8, !tbaa !71
  %69 = call i32 @OCSP_RESPID_set_by_name(ptr noundef %67, ptr noundef %68)
  %70 = icmp ne i32 %69, 0
  br i1 %70, label %72, label %71

71:                                               ; preds = %66
  br label %99

72:                                               ; preds = %66
  br label %73

73:                                               ; preds = %72, %65
  %74 = load i64, ptr %11, align 8, !tbaa !76
  %75 = and i64 %74, 2048
  %76 = icmp ne i64 %75, 0
  br i1 %76, label %85, label %77

77:                                               ; preds = %73
  %78 = load ptr, ptr %7, align 8, !tbaa !40
  %79 = getelementptr inbounds nuw %struct.ocsp_basic_response_st, ptr %78, i32 0, i32 0
  %80 = getelementptr inbounds nuw %struct.ocsp_response_data_st, ptr %79, i32 0, i32 2
  %81 = load ptr, ptr %80, align 8, !tbaa !82
  %82 = call ptr @X509_gmtime_adj(ptr noundef %81, i64 noundef 0)
  %83 = icmp ne ptr %82, null
  br i1 %83, label %85, label %84

84:                                               ; preds = %77
  br label %99

85:                                               ; preds = %77, %73
  %86 = call ptr @OCSP_RESPDATA_it()
  %87 = load ptr, ptr %7, align 8, !tbaa !40
  %88 = getelementptr inbounds nuw %struct.ocsp_basic_response_st, ptr %87, i32 0, i32 1
  %89 = load ptr, ptr %7, align 8, !tbaa !40
  %90 = getelementptr inbounds nuw %struct.ocsp_basic_response_st, ptr %89, i32 0, i32 2
  %91 = load ptr, ptr %90, align 8, !tbaa !83
  %92 = load ptr, ptr %7, align 8, !tbaa !40
  %93 = getelementptr inbounds nuw %struct.ocsp_basic_response_st, ptr %92, i32 0, i32 0
  %94 = load ptr, ptr %9, align 8, !tbaa !73
  %95 = call i32 @ASN1_item_sign_ctx(ptr noundef %86, ptr noundef %88, ptr noundef null, ptr noundef %91, ptr noundef %93, ptr noundef %94)
  %96 = icmp ne i32 %95, 0
  br i1 %96, label %98, label %97

97:                                               ; preds = %85
  br label %99

98:                                               ; preds = %85
  store i32 1, ptr %6, align 4
  store i32 1, ptr %14, align 4
  br label %100

99:                                               ; preds = %97, %84, %71, %64, %50, %33, %21
  store i32 0, ptr %6, align 4
  store i32 1, ptr %14, align 4
  br label %100

100:                                              ; preds = %99, %98
  call void @llvm.lifetime.end.p0(i64 8, ptr %13) #5
  call void @llvm.lifetime.end.p0(i64 8, ptr %12) #5
  %101 = load i32, ptr %6, align 4
  ret i32 %101
}