; Function Attrs: nounwind uwtable
define range(i32 0, 2) i32 @OCSP_basic_sign_ctx(ptr noundef %0, ptr noundef %1, ptr noundef %2, ptr noundef %3, i64 noundef %4) local_unnamed_addr #0 {
  %6 = icmp eq ptr %2, null
  br i1 %6, label %OCSP_RESPID_set_by_name.exit.thread.sink.split, label %7

7:                                                ; preds = %5
  %8 = tail call ptr @EVP_MD_CTX_get_pkey_ctx(ptr noundef nonnull %2) #6
  %9 = icmp eq ptr %8, null
  br i1 %9, label %OCSP_RESPID_set_by_name.exit.thread.sink.split, label %10

10:                                               ; preds = %7
  %11 = tail call ptr @EVP_MD_CTX_get_pkey_ctx(ptr noundef nonnull %2) #6
  %12 = tail call ptr @EVP_PKEY_CTX_get0_pkey(ptr noundef %11) #6
  %13 = icmp eq ptr %12, null
  br i1 %13, label %OCSP_RESPID_set_by_name.exit.thread.sink.split, label %14

14:                                               ; preds = %10
  %15 = tail call i32 @X509_check_private_key(ptr noundef %1, ptr noundef nonnull %12) #6
  %.not = icmp eq i32 %15, 0
  br i1 %.not, label %OCSP_RESPID_set_by_name.exit.thread.sink.split, label %16

16:                                               ; preds = %14
  %17 = and i64 %4, 1
  %.not25 = icmp eq i64 %17, 0
  br i1 %.not25, label %18, label %24

18:                                               ; preds = %16
  %19 = getelementptr inbounds nuw i8, ptr %0, i64 72
  %20 = tail call i32 @ossl_x509_add_cert_new(ptr noundef nonnull %19, ptr noundef %1, i32 noundef 1) #6
  %.not26 = icmp eq i32 %20, 0
  br i1 %.not26, label %OCSP_RESPID_set_by_name.exit.thread, label %21

21:                                               ; preds = %18
  %22 = load ptr, ptr %19, align 8, !tbaa !50
  %23 = tail call i32 @X509_add_certs(ptr noundef %22, ptr noundef %3, i32 noundef 1) #6
  %.not27 = icmp eq i32 %23, 0
  br i1 %.not27, label %OCSP_RESPID_set_by_name.exit.thread, label %24

24:                                               ; preds = %21, %16
  %25 = getelementptr inbounds nuw i8, ptr %0, i64 8
  %26 = and i64 %4, 1024
  %.not28 = icmp eq i64 %26, 0
  br i1 %.not28, label %29, label %27

27:                                               ; preds = %24
  %28 = tail call i32 @OCSP_RESPID_set_by_key(ptr noundef nonnull %25, ptr noundef %1)
  %.not30 = icmp eq i32 %28, 0
  br i1 %.not30, label %OCSP_RESPID_set_by_name.exit.thread, label %33

29:                                               ; preds = %24
  %30 = getelementptr inbounds nuw i8, ptr %0, i64 16
  %31 = tail call ptr @X509_get_subject_name(ptr noundef %1) #6
  %32 = tail call i32 @X509_NAME_set(ptr noundef nonnull %30, ptr noundef %31) #6
  %.not.i = icmp eq i32 %32, 0
  br i1 %.not.i, label %OCSP_RESPID_set_by_name.exit.thread, label %OCSP_RESPID_set_by_name.exit

OCSP_RESPID_set_by_name.exit:                     ; preds = %29
  store i32 0, ptr %25, align 8, !tbaa !51
  br label %33

33:                                               ; preds = %OCSP_RESPID_set_by_name.exit, %27
  %34 = and i64 %4, 2048
  %.not31 = icmp eq i64 %34, 0
  br i1 %.not31, label %35, label %39

35:                                               ; preds = %33
  %36 = getelementptr inbounds nuw i8, ptr %0, i64 24
  %37 = load ptr, ptr %36, align 8, !tbaa !52
  %38 = tail call ptr @X509_gmtime_adj(ptr noundef %37, i64 noundef 0) #6
  %.not32 = icmp eq ptr %38, null
  br i1 %.not32, label %OCSP_RESPID_set_by_name.exit.thread, label %39

39:                                               ; preds = %35, %33
  %40 = tail call ptr @OCSP_RESPDATA_it() #6
  %41 = getelementptr inbounds nuw i8, ptr %0, i64 48
  %42 = getelementptr inbounds nuw i8, ptr %0, i64 64
  %43 = load ptr, ptr %42, align 8, !tbaa !53
  %44 = tail call i32 @ASN1_item_sign_ctx(ptr noundef %40, ptr noundef nonnull %41, ptr noundef null, ptr noundef %43, ptr noundef nonnull %0, ptr noundef nonnull %2) #6
  %.not33 = icmp eq i32 %44, 0
  br i1 %.not33, label %OCSP_RESPID_set_by_name.exit.thread, label %45

OCSP_RESPID_set_by_name.exit.thread.sink.split:   ; preds = %10, %14, %5, %7
  %.sink36 = phi i32 [ 175, %7 ], [ 175, %5 ], [ 181, %14 ], [ 181, %10 ]
  %.sink = phi i32 [ 130, %7 ], [ 130, %5 ], [ 110, %14 ], [ 110, %10 ]
  tail call void @ERR_new() #6
  tail call void @ERR_set_debug(ptr noundef nonnull @.str, i32 noundef %.sink36, ptr noundef nonnull @__func__.OCSP_basic_sign_ctx) #6
  tail call void (i32, i32, ptr, ...) @ERR_set_error(i32 noundef 39, i32 noundef %.sink, ptr noundef null) #6
  br label %OCSP_RESPID_set_by_name.exit.thread

OCSP_RESPID_set_by_name.exit.thread:              ; preds = %OCSP_RESPID_set_by_name.exit.thread.sink.split, %29, %39, %35, %27, %18, %21
  br label %45

45:                                               ; preds = %39, %OCSP_RESPID_set_by_name.exit.thread
  %.0 = phi i32 [ 0, %OCSP_RESPID_set_by_name.exit.thread ], [ 1, %39 ]
  ret i32 %.0
}